target datalayout = "e-m:e-p270:32:32-p271:32:32-p272:64:64-i64:64-i128:128-f80:128-n8:16:32:64-S128"
target triple = "x86_64-pc-linux-gnu"

%struct.ScanTable = type { ptr, [64 x i8], [64 x i8] }
%struct.MpegEncContext = type { ptr, i32, i32, i32, [12 x i32], i32, %struct.ScanTable, %struct.ScanTable, [64 x i8], [64 x i8], ptr, ptr, i32, i32, i32, i32, i32, i32, i32, i32, i32, i32, i32, i32, i32, i32, i32, i32, i32, i32, i32, i32, i64, i64, ptr, %struct.BufferPoolContext, i32, i32, %union.anon, i32, %struct.MPVWorkPicture, %struct.MPVWorkPicture, %struct.MPVWorkPicture, i32, [3 x i32], ptr, [3 x ptr], ptr, ptr, ptr, ptr, ptr, ptr, [3 x ptr], i32, ptr, ptr, ptr, ptr, %struct.ScratchpadContext, i32, i32, i32, i32, i32, i32, %struct.BlockDSPContext, %struct.H264ChromaContext, %struct.HpelDSPContext, %struct.IDCTDSPContext, %struct.QpelDSPContext, %struct.VideoDSPContext, %struct.H263DSPContext, ptr, [2 x [2 x ptr]], i32, i32, [2 x [4 x [2 x i32]]], [2 x [2 x i32]], [2 x [2 x [2 x i32]]], [2 x [64 x i16]], i32, i32, i32, i32, i32, [6 x i32], [6 x i32], [3 x ptr], ptr, [64 x i16], [64 x i16], [64 x i16], [64 x i16], i32, i32, %struct.GetBitContext, i32, i32, i32, i32, i32, i32, i32, i32, i32, i32, i32, i32, i32, i32, i32, i64, i64, i16, i16, i16, i16, i32, i32, i32, i32, i32, i32, i32, i32, i32, [3 x i32], i32, i32, i32, i32, i32, i32, %struct.GetBitContext, i32, [2 x [2 x i32]], i32, i32, i32, i32, i32, i32, i32, i32, i32, i32, i32, i32, i32, i32, [2 x i32], i32, i32, ptr, ptr, ptr, ptr, ptr, i32, i32, %struct.ERContext }
%struct.BufferPoolContext = type { ptr, ptr, ptr, ptr, ptr, i32, i32, i32 }
%union.anon = type { [32 x ptr] }
%struct.MPVWorkPicture = type { [3 x ptr], [3 x i64], ptr, ptr, [2 x ptr], ptr, ptr, [2 x ptr], i32 }
%struct.ScratchpadContext = type { ptr, ptr, %union.anon.0, i32 }
%union.anon.0 = type { ptr }
%struct.BlockDSPContext = type { ptr, ptr, [2 x ptr] }
%struct.H264ChromaContext = type { [4 x ptr], [4 x ptr] }
%struct.HpelDSPContext = type { [4 x [4 x ptr]], [4 x [4 x ptr]], [4 x [4 x ptr]], [4 x ptr] }
%struct.IDCTDSPContext = type { ptr, ptr, ptr, ptr, ptr, ptr, [64 x i8], i32, i32 }
%struct.QpelDSPContext = type { [2 x [16 x ptr]], [2 x [16 x ptr]], [2 x [16 x ptr]] }
%struct.VideoDSPContext = type { ptr, ptr }
%struct.H263DSPContext = type { ptr, ptr }
%struct.GetBitContext = type { ptr, ptr, i32, i32, i32 }
%struct.ERContext = type { ptr, ptr, i32, ptr, i32, i32, i32, i64, i64, i32, i32, ptr, ptr, [3 x ptr], ptr, ptr, [2 x [4 x [2 x i32]]], %struct.ERPicture, %struct.ERPicture, %struct.ERPicture, [2 x ptr], [2 x ptr], i16, i16, i32, i32, ptr, ptr }
%struct.ERPicture = type { ptr, ptr, ptr, [2 x ptr], [2 x ptr], ptr, i32 }

@.str = private unnamed_addr constant [45 x i8] c"failed to allocate context scratch buffers.\0A\00", align 1

; Function Attrs: nounwind uwtable
define internal void @backup_duplicate_context(ptr noundef %0, ptr noundef %1) #3 {
  %3 = alloca ptr, align 8
  %4 = alloca ptr, align 8
  store ptr %0, ptr %3, align 8, !tbaa !18
  store ptr %1, ptr %4, align 8, !tbaa !18
  %5 = load ptr, ptr %3, align 8, !tbaa !18
  %6 = getelementptr inbounds nuw %struct.MpegEncContext, ptr %5, i32 0, i32 59
  %7 = load ptr, ptr %4, align 8, !tbaa !18
  %8 = getelementptr inbounds nuw %struct.MpegEncContext, ptr %7, i32 0, i32 59
  call void @llvm.memcpy.p0.p0.i64(ptr align 8 %6, ptr align 8 %8, i64 32, i1 false), !tbaa.struct !67
  %9 = load ptr, ptr %4, align 8, !tbaa !18
  %10 = getelementptr inbounds nuw %struct.MpegEncContext, ptr %9, i32 0, i32 155
  %11 = load ptr, ptr %10, align 8, !tbaa !58
  %12 = load ptr, ptr %3, align 8, !tbaa !18
  %13 = getelementptr inbounds nuw %struct.MpegEncContext, ptr %12, i32 0, i32 155
  store ptr %11, ptr %13, align 8, !tbaa !58
  %14 = load ptr, ptr %4, align 8, !tbaa !18
  %15 = getelementptr inbounds nuw %struct.MpegEncContext, ptr %14, i32 0, i32 154
  %16 = load ptr, ptr %15, align 8, !tbaa !59
  %17 = load ptr, ptr %3, align 8, !tbaa !18
  %18 = getelementptr inbounds nuw %struct.MpegEncContext, ptr %17, i32 0, i32 154
  store ptr %16, ptr %18, align 8, !tbaa !59
  %19 = load ptr, ptr %4, align 8, !tbaa !18
  %20 = getelementptr inbounds nuw %struct.MpegEncContext, ptr %19, i32 0, i32 36
  %21 = load i32, ptr %20, align 8, !tbaa !54
  %22 = load ptr, ptr %3, align 8, !tbaa !18
  %23 = getelementptr inbounds nuw %struct.MpegEncContext, ptr %22, i32 0, i32 36
  store i32 %21, ptr %23, align 8, !tbaa !54
  %24 = load ptr, ptr %4, align 8, !tbaa !18
  %25 = getelementptr inbounds nuw %struct.MpegEncContext, ptr %24, i32 0, i32 37
  %26 = load i32, ptr %25, align 4, !tbaa !55
  %27 = load ptr, ptr %3, align 8, !tbaa !18
  %28 = getelementptr inbounds nuw %struct.MpegEncContext, ptr %27, i32 0, i32 37
  store i32 %26, ptr %28, align 4, !tbaa !55
  %29 = load ptr, ptr %4, align 8, !tbaa !18
  %30 = getelementptr inbounds nuw %struct.MpegEncContext, ptr %29, i32 0, i32 52
  %31 = load ptr, ptr %30, align 8, !tbaa !64
  %32 = load ptr, ptr %3, align 8, !tbaa !18
  %33 = getelementptr inbounds nuw %struct.MpegEncContext, ptr %32, i32 0, i32 52
  store ptr %31, ptr %33, align 8, !tbaa !64
  %34 = load ptr, ptr %4, align 8, !tbaa !18
  %35 = getelementptr inbounds nuw %struct.MpegEncContext, ptr %34, i32 0, i32 53
  %36 = getelementptr inbounds [3 x ptr], ptr %35, i64 0, i64 0
  %37 = load ptr, ptr %36, align 8, !tbaa !65
  %38 = load ptr, ptr %3, align 8, !tbaa !18
  %39 = getelementptr inbounds nuw %struct.MpegEncContext, ptr %38, i32 0, i32 53
  %40 = getelementptr inbounds [3 x ptr], ptr %39, i64 0, i64 0
  store ptr %37, ptr %40, align 8, !tbaa !65
  %41 = load ptr, ptr %4, align 8, !tbaa !18
  %42 = getelementptr inbounds nuw %struct.MpegEncContext, ptr %41, i32 0, i32 53
  %43 = getelementptr inbounds [3 x ptr], ptr %42, i64 0, i64 1
  %44 = load ptr, ptr %43, align 8, !tbaa !65
  %45 = load ptr, ptr %3, align 8, !tbaa !18
  %46 = getelementptr inbounds nuw %struct.MpegEncContext, ptr %45, i32 0, i32 53
  %47 = getelementptr inbounds [3 x ptr], ptr %46, i64 0, i64 1
  store ptr %44, ptr %47, align 8, !tbaa !65
  %48 = load ptr, ptr %4, align 8, !tbaa !18
  %49 = getelementptr inbounds nuw %struct.MpegEncContext, ptr %48, i32 0, i32 53
  %50 = getelementptr inbounds [3 x ptr], ptr %49, i64 0, i64 2
  %51 = load ptr, ptr %50, align 8, !tbaa !65
  %52 = load ptr, ptr %3, align 8, !tbaa !18
  %53 = getelementptr inbounds nuw %struct.MpegEncContext, ptr %52, i32 0, i32 53
  %54 = getelementptr inbounds [3 x ptr], ptr %53, i64 0, i64 2
  store ptr %51, ptr %54, align 8, !tbaa !65
  ret void
}

; Function Attrs: nounwind uwtable
define i32 @ff_update_duplicate_context(ptr noundef %0, ptr noundef %1) #3 {
  %3 = alloca i32, align 4
  %4 = alloca ptr, align 8
  %5 = alloca ptr, align 8
  %6 = alloca %struct.MpegEncContext, align 8
  %7 = alloca i32, align 4
  %8 = alloca i32, align 4
  store ptr %0, ptr %4, align 8, !tbaa !18
  store ptr %1, ptr %5, align 8, !tbaa !18
  call void @llvm.lifetime.start.p0(i64 4808, ptr %6) #7
  call void @llvm.lifetime.start.p0(i64 4, ptr %7) #7
  %9 = load ptr, ptr %4, align 8, !tbaa !18
  call void @backup_duplicate_context(ptr noundef %6, ptr noundef %9)
  %10 = load ptr, ptr %4, align 8, !tbaa !18
  %11 = load ptr, ptr %5, align 8, !tbaa !18
  call void @llvm.memcpy.p0.p0.i64(ptr align 8 %10, ptr align 8 %11, i64 4808, i1 false)
  %12 = load ptr, ptr %4, align 8, !tbaa !18
  call void @backup_duplicate_context(ptr noundef %12, ptr noundef %6)
  %13 = load ptr, ptr %4, align 8, !tbaa !18
  %14 = getelementptr inbounds nuw %struct.MpegEncContext, ptr %13, i32 0, i32 10
  %15 = load ptr, ptr %14, align 8, !tbaa !48
  %16 = load ptr, ptr %4, align 8, !tbaa !18
  %17 = getelementptr inbounds nuw %struct.MpegEncContext, ptr %16, i32 0, i32 59
  %18 = load ptr, ptr %4, align 8, !tbaa !18
  %19 = getelementptr inbounds nuw %struct.MpegEncContext, ptr %18, i32 0, i32 32
  %20 = load i64, ptr %19, align 8, !tbaa !66
  %21 = trunc i64 %20 to i32
  %22 = call i32 @ff_mpv_framesize_alloc(ptr noundef %15, ptr noundef %17, i32 noundef %21)
  store i32 %22, ptr %7, align 4, !tbaa !13
  %23 = load i32, ptr %7, align 4, !tbaa !13
  %24 = icmp slt i32 %23, 0
  br i1 %24, label %25, label %30

25:                                               ; preds = %2
  %26 = load ptr, ptr %4, align 8, !tbaa !18
  %27 = getelementptr inbounds nuw %struct.MpegEncContext, ptr %26, i32 0, i32 10
  %28 = load ptr, ptr %27, align 8, !tbaa !48
  call void (ptr, i32, ptr, ...) @av_log(ptr noundef %28, i32 noundef 16, ptr noundef @.str)
  %29 = load i32, ptr %7, align 4, !tbaa !13
  store i32 %29, ptr %3, align 4
  store i32 1, ptr %8, align 4
  br label %31

30:                                               ; preds = %2
  store i32 0, ptr %3, align 4
  store i32 1, ptr %8, align 4
  br label %31

31:                                               ; preds = %30, %25
  call void @llvm.lifetime.end.p0(i64 4, ptr %7) #7
  call void @llvm.lifetime.end.p0(i64 4808, ptr %6) #7
  %32 = load i32, ptr %3, align 4
  ret i32 %32
}