; Function Attrs: nounwind uwtable
define range(i32 -2147483648, 1) i32 @ff_update_duplicate_context(ptr noundef initializes((0, 648), (656, 1368), (1400, 1440), (1472, 4288), (4304, 4808)) %0, ptr noundef readonly captures(none) %1) local_unnamed_addr #4 {
  %.sroa.14 = alloca { i32, ptr, ptr, ptr, ptr, %struct.ScratchpadContext }, align 8
  call void @llvm.lifetime.start.p0(i64 72, ptr nonnull %.sroa.14)
  %3 = getelementptr inbounds nuw i8, ptr %0, i64 1440
  %.sroa.14.1440..sroa_idx = getelementptr inbounds nuw i8, ptr %.sroa.14, i64 40
  call void @llvm.memcpy.p0.p0.i64(ptr noundef nonnull align 8 dereferenceable(32) %.sroa.14.1440..sroa_idx, ptr noundef nonnull align 8 dereferenceable(32) %3, i64 32, i1 false), !tbaa.struct !59
  %4 = getelementptr inbounds nuw i8, ptr %0, i64 4296
  %5 = load ptr, ptr %4, align 8, !tbaa !51
  %6 = getelementptr inbounds nuw i8, ptr %0, i64 4288
  %7 = load ptr, ptr %6, align 8, !tbaa !52
  %8 = getelementptr inbounds nuw i8, ptr %0, i64 648
  %9 = load i32, ptr %8, align 8, !tbaa !46
  %10 = getelementptr inbounds nuw i8, ptr %0, i64 652
  %11 = load i32, ptr %10, align 4, !tbaa !48
  %12 = getelementptr inbounds nuw i8, ptr %0, i64 1368
  %13 = load ptr, ptr %12, align 8, !tbaa !57
  %14 = getelementptr inbounds nuw i8, ptr %0, i64 1376
  %15 = load ptr, ptr %14, align 8, !tbaa !58
  %16 = getelementptr inbounds nuw i8, ptr %0, i64 1384
  %17 = load ptr, ptr %16, align 8, !tbaa !58
  %18 = getelementptr inbounds nuw i8, ptr %0, i64 1392
  %19 = load ptr, ptr %18, align 8, !tbaa !58
  tail call void @llvm.memcpy.p0.p0.i64(ptr noundef nonnull align 8 dereferenceable(4808) %0, ptr noundef nonnull align 8 dereferenceable(4808) %1, i64 4808, i1 false)
  call void @llvm.memcpy.p0.p0.i64(ptr noundef nonnull align 8 dereferenceable(32) %3, ptr noundef nonnull align 8 dereferenceable(32) %.sroa.14.1440..sroa_idx, i64 32, i1 false), !tbaa.struct !59
  store ptr %5, ptr %4, align 8, !tbaa !51
  store ptr %7, ptr %6, align 8, !tbaa !52
  store i32 %9, ptr %8, align 8, !tbaa !46
  store i32 %11, ptr %10, align 4, !tbaa !48
  store ptr %13, ptr %12, align 8, !tbaa !57
  store ptr %15, ptr %14, align 8, !tbaa !58
  store ptr %17, ptr %16, align 8, !tbaa !58
  store ptr %19, ptr %18, align 8, !tbaa !58
  %20 = getelementptr inbounds nuw i8, ptr %0, i64 472
  %21 = load ptr, ptr %20, align 8, !tbaa !42
  %22 = getelementptr inbounds nuw i8, ptr %0, i64 568
  %23 = load i64, ptr %22, align 8, !tbaa !62
  %24 = trunc i64 %23 to i32
  %25 = tail call i32 @ff_mpv_framesize_alloc(ptr noundef %21, ptr noundef nonnull %3, i32 noundef %24) #12
  %26 = icmp slt i32 %25, 0
  br i1 %26, label %27, label %29

27:                                               ; preds = %2
  %28 = load ptr, ptr %20, align 8, !tbaa !42
  tail call void (ptr, i32, ptr, ...) @av_log(ptr noundef %28, i32 noundef 16, ptr noundef nonnull @.str) #12
  br label %29

29:                                               ; preds = %2, %27
  %.0 = phi i32 [ %25, %27 ], [ 0, %2 ]
  call void @llvm.lifetime.end.p0(i64 72, ptr nonnull %.sroa.14)
  ret i32 %.0
}